; Function Attrs: mustprogress nounwind uwtable
define hidden void @_ZN11opencv_onnx19TensorProto_SegmentD0Ev(ptr noundef nonnull align 8 dereferenceable(40) %0) unnamed_addr #7 align 2 personality ptr @__gxx_personality_v0 {
  %2 = getelementptr inbounds nuw i8, ptr %0, i64 8
  %3 = load i64, ptr %2, align 8, !tbaa !33
  %4 = and i64 %3, 1
  %.not.i.i = icmp eq i64 %4, 0
  br i1 %.not.i.i, label %_ZN6google8protobuf8internal16InternalMetadata6DeleteINS0_15UnknownFieldSetEEEvv.exit.i, label %_ZNK6google8protobuf11MessageLite21GetArenaForAllocationEv.exit.thread.i, !prof !43

_ZNK6google8protobuf11MessageLite21GetArenaForAllocationEv.exit.thread.i: ; preds = %1
  %5 = and i64 %3, -4
  %6 = inttoptr i64 %5 to ptr
  %7 = load ptr, ptr %6, align 8, !tbaa !44
  %.not3.i = icmp eq ptr %7, null
  br i1 %.not3.i, label %8, label %_ZN6google8protobuf8internal16InternalMetadata6DeleteINS0_15UnknownFieldSetEEEvv.exit.i

8:                                                ; preds = %_ZNK6google8protobuf11MessageLite21GetArenaForAllocationEv.exit.thread.i
  invoke void @_ZN6google8protobuf8internal16InternalMetadata21DeleteOutOfLineHelperINS0_15UnknownFieldSetEEEvv(ptr noundef nonnull align 8 dereferenceable(8) %2)
          to label %._ZN6google8protobuf8internal16InternalMetadata6DeleteINS0_15UnknownFieldSetEEEvv.exit_crit_edge.i unwind label %19

._ZN6google8protobuf8internal16InternalMetadata6DeleteINS0_15UnknownFieldSetEEEvv.exit_crit_edge.i: ; preds = %8
  %.pre.i = load i64, ptr %2, align 8, !tbaa !33
  br label %_ZN6google8protobuf8internal16InternalMetadata6DeleteINS0_15UnknownFieldSetEEEvv.exit.i

_ZN6google8protobuf8internal16InternalMetadata6DeleteINS0_15UnknownFieldSetEEEvv.exit.i: ; preds = %._ZN6google8protobuf8internal16InternalMetadata6DeleteINS0_15UnknownFieldSetEEEvv.exit_crit_edge.i, %_ZNK6google8protobuf11MessageLite21GetArenaForAllocationEv.exit.thread.i, %1
  %9 = phi i64 [ %.pre.i, %._ZN6google8protobuf8internal16InternalMetadata6DeleteINS0_15UnknownFieldSetEEEvv.exit_crit_edge.i ], [ %3, %1 ], [ %3, %_ZNK6google8protobuf11MessageLite21GetArenaForAllocationEv.exit.thread.i ]
  store ptr getelementptr inbounds nuw inrange(-16, 104) (i8, ptr @_ZTVN6google8protobuf11MessageLiteE, i64 16), ptr %0, align 8, !tbaa !34
  %10 = and i64 %9, 2
  %.not.i.i.i = icmp eq i64 %10, 0
  br i1 %.not.i.i.i, label %_ZN11opencv_onnx19TensorProto_SegmentD2Ev.exit, label %11

11:                                               ; preds = %_ZN6google8protobuf8internal16InternalMetadata6DeleteINS0_15UnknownFieldSetEEEvv.exit.i
  %12 = and i64 %9, 1
  %.not1.i.i.i = icmp eq i64 %12, 0
  %13 = and i64 %9, -4
  %14 = inttoptr i64 %13 to ptr
  br i1 %.not1.i.i.i, label %_ZNK6google8protobuf8internal16InternalMetadata5arenaEv.exit.i.i.i, label %15, !prof !43

15:                                               ; preds = %11
  %16 = load ptr, ptr %14, align 8, !tbaa !44
  br label %_ZNK6google8protobuf8internal16InternalMetadata5arenaEv.exit.i.i.i

_ZNK6google8protobuf8internal16InternalMetadata5arenaEv.exit.i.i.i: ; preds = %15, %11
  %.0.i.i.i.i = phi ptr [ %16, %15 ], [ %14, %11 ]
  %17 = icmp eq ptr %.0.i.i.i.i, null
  br i1 %17, label %_ZN11opencv_onnx19TensorProto_SegmentD2Ev.exit, label %18

18:                                               ; preds = %_ZNK6google8protobuf8internal16InternalMetadata5arenaEv.exit.i.i.i
  tail call void @_ZN6google8protobuf8internal15ThreadSafeArenaD1Ev(ptr noundef nonnull align 8 dereferenceable(32) %.0.i.i.i.i) #22
  tail call void @_ZdlPv(ptr noundef nonnull %.0.i.i.i.i) #23
  br label %_ZN11opencv_onnx19TensorProto_SegmentD2Ev.exit

19:                                               ; preds = %8
  %20 = landingpad { ptr, i32 }
          catch ptr null
  %21 = extractvalue { ptr, i32 } %20, 0
  tail call void @__clang_call_terminate(ptr %21) #21
  unreachable

_ZN11opencv_onnx19TensorProto_SegmentD2Ev.exit:   ; preds = %_ZN6google8protobuf8internal16InternalMetadata6DeleteINS0_15UnknownFieldSetEEEvv.exit.i, %_ZNK6google8protobuf8internal16InternalMetadata5arenaEv.exit.i.i.i, %18
  tail call void @_ZdlPv(ptr noundef nonnull %0) #23
  ret void
}